target datalayout = "e-m:e-p270:32:32-p271:32:32-p272:64:64-i64:64-i128:128-f80:128-n8:16:32:64-S128"
target triple = "x86_64-pc-linux-gnu"

%struct.FunctionCallInfoBaseData = type { ptr, ptr, ptr, i32, i8, i16, [0 x %struct.NullableDatum] }
%struct.NullableDatum = type { i64, i8 }
%struct.Node = type { i32 }
%struct.ReturnSetInfo = type { i32, ptr, ptr, i32, i32, i32, ptr, ptr }
%struct.ExprContext = type { i32, ptr, ptr, ptr, ptr, ptr, ptr, ptr, ptr, ptr, i64, i8, i64, i8, ptr, ptr, ptr, ptr }
%struct.FmgrInfo = type { ptr, i32, i16, i8, i8, i8, ptr, ptr, ptr }

@.str = private unnamed_addr constant [63 x i8] c"set-valued function called in context that cannot accept a set\00", align 1
@.str.1 = private unnamed_addr constant [10 x i8] c"funcapi.c\00", align 1
@__func__.InitMaterializedSRF = private unnamed_addr constant [20 x i8] c"InitMaterializedSRF\00", align 1
@.str.2 = private unnamed_addr constant [65 x i8] c"materialize mode required, but it is not allowed in this context\00", align 1
@.str.3 = private unnamed_addr constant [31 x i8] c"return type must be a row type\00", align 1
@work_mem = external global i32, align 4
@CurrentMemoryContext = external global ptr, align 8

; Function Attrs: nounwind uwtable
define dso_local i32 @get_call_result_type(ptr noundef %0, ptr noundef %1, ptr noundef %2) #0 {
  %4 = alloca ptr, align 8
  %5 = alloca ptr, align 8
  %6 = alloca ptr, align 8
  store ptr %0, ptr %4, align 8
  store ptr %1, ptr %5, align 8
  store ptr %2, ptr %6, align 8
  %7 = load ptr, ptr %4, align 8
  %8 = getelementptr inbounds nuw %struct.FunctionCallInfoBaseData, ptr %7, i32 0, i32 0
  %9 = load ptr, ptr %8, align 8
  %10 = getelementptr inbounds nuw %struct.FmgrInfo, ptr %9, i32 0, i32 1
  %11 = load i32, ptr %10, align 8
  %12 = load ptr, ptr %4, align 8
  %13 = getelementptr inbounds nuw %struct.FunctionCallInfoBaseData, ptr %12, i32 0, i32 0
  %14 = load ptr, ptr %13, align 8
  %15 = getelementptr inbounds nuw %struct.FmgrInfo, ptr %14, i32 0, i32 8
  %16 = load ptr, ptr %15, align 8
  %17 = load ptr, ptr %4, align 8
  %18 = getelementptr inbounds nuw %struct.FunctionCallInfoBaseData, ptr %17, i32 0, i32 2
  %19 = load ptr, ptr %18, align 8
  %20 = load ptr, ptr %5, align 8
  %21 = load ptr, ptr %6, align 8
  %22 = call i32 @internal_get_result_type(i32 noundef %11, ptr noundef %16, ptr noundef %19, ptr noundef %20, ptr noundef %21)
  ret i32 %22
}

; Function Attrs: inlinehint nounwind uwtable
define internal ptr @MemoryContextSwitchTo(ptr noundef %0) #4 {
  %2 = alloca ptr, align 8
  %3 = alloca ptr, align 8
  store ptr %0, ptr %2, align 8
  call void @llvm.lifetime.start.p0(i64 8, ptr %3) #7
  %4 = load ptr, ptr @CurrentMemoryContext, align 8
  store ptr %4, ptr %3, align 8
  %5 = load ptr, ptr %2, align 8
  store ptr %5, ptr @CurrentMemoryContext, align 8
  %6 = load ptr, ptr %3, align 8
  call void @llvm.lifetime.end.p0(i64 8, ptr %3) #7
  ret ptr %6
}

; Function Attrs: nounwind uwtable
define dso_local void @InitMaterializedSRF(ptr noundef %0, i32 noundef %1) #0 {
  %3 = alloca ptr, align 8
  %4 = alloca i32, align 4
  %5 = alloca i8, align 1
  %6 = alloca ptr, align 8
  %7 = alloca ptr, align 8
  %8 = alloca ptr, align 8
  %9 = alloca ptr, align 8
  %10 = alloca ptr, align 8
  store ptr %0, ptr %3, align 8
  store i32 %1, ptr %4, align 4
  call void @llvm.lifetime.start.p0(i64 1, ptr %5) #7
  call void @llvm.lifetime.start.p0(i64 8, ptr %6) #7
  %11 = load ptr, ptr %3, align 8
  %12 = getelementptr inbounds nuw %struct.FunctionCallInfoBaseData, ptr %11, i32 0, i32 2
  %13 = load ptr, ptr %12, align 8
  store ptr %13, ptr %6, align 8
  call void @llvm.lifetime.start.p0(i64 8, ptr %7) #7
  call void @llvm.lifetime.start.p0(i64 8, ptr %8) #7
  call void @llvm.lifetime.start.p0(i64 8, ptr %9) #7
  call void @llvm.lifetime.start.p0(i64 8, ptr %10) #7
  %14 = load ptr, ptr %6, align 8
  %15 = icmp eq ptr %14, null
  br i1 %15, label %21, label %16

16:                                               ; preds = %2
  %17 = load ptr, ptr %6, align 8
  %18 = getelementptr inbounds nuw %struct.Node, ptr %17, i32 0, i32 0
  %19 = load i32, ptr %18, align 4
  %20 = icmp eq i32 %19, 382
  br i1 %20, label %33, label %21

21:                                               ; preds = %16, %2
  br label %22

22:                                               ; preds = %21
  br i1 true, label %23, label %25

23:                                               ; preds = %22
  %24 = call zeroext i1 @errstart_cold(i32 noundef 21, ptr noundef null) #8
  br i1 %24, label %27, label %30

25:                                               ; preds = %22
  %26 = call zeroext i1 @errstart(i32 noundef 21, ptr noundef null)
  br i1 %26, label %27, label %30

27:                                               ; preds = %25, %23
  %28 = call i32 @errcode(i32 noundef 1088)
  %29 = call i32 (ptr, ...) @errmsg(ptr noundef @.str)
  call void @errfinish(ptr noundef @.str.1, i32 noundef 89, ptr noundef @__func__.InitMaterializedSRF)
  br label %30

30:                                               ; preds = %27, %25, %23
  unreachable

31:                                               ; No predecessors!
  br label %32

32:                                               ; preds = %31
  br label %33

33:                                               ; preds = %32, %16
  %34 = load ptr, ptr %6, align 8
  %35 = getelementptr inbounds nuw %struct.ReturnSetInfo, ptr %34, i32 0, i32 3
  %36 = load i32, ptr %35, align 8
  %37 = and i32 %36, 2
  %38 = icmp ne i32 %37, 0
  br i1 %38, label %39, label %48

39:                                               ; preds = %33
  %40 = load i32, ptr %4, align 4
  %41 = and i32 %40, 1
  %42 = icmp ne i32 %41, 0
  br i1 %42, label %43, label %60

43:                                               ; preds = %39
  %44 = load ptr, ptr %6, align 8
  %45 = getelementptr inbounds nuw %struct.ReturnSetInfo, ptr %44, i32 0, i32 2
  %46 = load ptr, ptr %45, align 8
  %47 = icmp eq ptr %46, null
  br i1 %47, label %48, label %60

48:                                               ; preds = %43, %33
  br label %49

49:                                               ; preds = %48
  br i1 true, label %50, label %52

50:                                               ; preds = %49
  %51 = call zeroext i1 @errstart_cold(i32 noundef 21, ptr noundef null) #8
  br i1 %51, label %54, label %57

52:                                               ; preds = %49
  %53 = call zeroext i1 @errstart(i32 noundef 21, ptr noundef null)
  br i1 %53, label %54, label %57

54:                                               ; preds = %52, %50
  %55 = call i32 @errcode(i32 noundef 1088)
  %56 = call i32 (ptr, ...) @errmsg(ptr noundef @.str.2)
  call void @errfinish(ptr noundef @.str.1, i32 noundef 94, ptr noundef @__func__.InitMaterializedSRF)
  br label %57

57:                                               ; preds = %54, %52, %50
  unreachable

58:                                               ; No predecessors!
  br label %59

59:                                               ; preds = %58
  br label %60

60:                                               ; preds = %59, %43, %39
  %61 = load ptr, ptr %6, align 8
  %62 = getelementptr inbounds nuw %struct.ReturnSetInfo, ptr %61, i32 0, i32 1
  %63 = load ptr, ptr %62, align 8
  %64 = getelementptr inbounds nuw %struct.ExprContext, ptr %63, i32 0, i32 4
  %65 = load ptr, ptr %64, align 8
  store ptr %65, ptr %9, align 8
  %66 = load ptr, ptr %9, align 8
  %67 = call ptr @MemoryContextSwitchTo(ptr noundef %66)
  store ptr %67, ptr %8, align 8
  %68 = load i32, ptr %4, align 4
  %69 = and i32 %68, 1
  %70 = icmp ne i32 %69, 0
  br i1 %70, label %71, label %76

71:                                               ; preds = %60
  %72 = load ptr, ptr %6, align 8
  %73 = getelementptr inbounds nuw %struct.ReturnSetInfo, ptr %72, i32 0, i32 2
  %74 = load ptr, ptr %73, align 8
  %75 = call ptr @CreateTupleDescCopy(ptr noundef %74)
  store ptr %75, ptr %10, align 8
  br label %92

76:                                               ; preds = %60
  %77 = load ptr, ptr %3, align 8
  %78 = call i32 @get_call_result_type(ptr noundef %77, ptr noundef null, ptr noundef %10)
  %79 = icmp ne i32 %78, 1
  br i1 %79, label %80, label %91

80:                                               ; preds = %76
  br label %81

81:                                               ; preds = %80
  br i1 true, label %82, label %84

82:                                               ; preds = %81
  %83 = call zeroext i1 @errstart_cold(i32 noundef 21, ptr noundef null) #8
  br i1 %83, label %86, label %88

84:                                               ; preds = %81
  %85 = call zeroext i1 @errstart(i32 noundef 21, ptr noundef null)
  br i1 %85, label %86, label %88

86:                                               ; preds = %84, %82
  %87 = call i32 (ptr, ...) @errmsg_internal(ptr noundef @.str.3)
  call void @errfinish(ptr noundef @.str.1, i32 noundef 109, ptr noundef @__func__.InitMaterializedSRF)
  br label %88

88:                                               ; preds = %86, %84, %82
  unreachable

89:                                               ; No predecessors!
  br label %90

90:                                               ; preds = %89
  br label %91

91:                                               ; preds = %90, %76
  br label %92

92:                                               ; preds = %91, %71
  %93 = load i32, ptr %4, align 4
  %94 = and i32 %93, 2
  %95 = icmp ne i32 %94, 0
  br i1 %95, label %96, label %99

96:                                               ; preds = %92
  %97 = load ptr, ptr %10, align 8
  %98 = call ptr @BlessTupleDesc(ptr noundef %97)
  br label %99

99:                                               ; preds = %96, %92
  %100 = load ptr, ptr %6, align 8
  %101 = getelementptr inbounds nuw %struct.ReturnSetInfo, ptr %100, i32 0, i32 3
  %102 = load i32, ptr %101, align 8
  %103 = and i32 %102, 4
  %104 = icmp ne i32 %103, 0
  %105 = zext i1 %104 to i8
  store i8 %105, ptr %5, align 1
  %106 = load i8, ptr %5, align 1, !range !4, !noundef !5
  %107 = trunc i8 %106 to i1
  %108 = load i32, ptr @work_mem, align 4
  %109 = call ptr @tuplestore_begin_heap(i1 noundef zeroext %107, i1 noundef zeroext false, i32 noundef %108)
  store ptr %109, ptr %7, align 8
  %110 = load ptr, ptr %6, align 8
  %111 = getelementptr inbounds nuw %struct.ReturnSetInfo, ptr %110, i32 0, i32 4
  store i32 2, ptr %111, align 4
  %112 = load ptr, ptr %7, align 8
  %113 = load ptr, ptr %6, align 8
  %114 = getelementptr inbounds nuw %struct.ReturnSetInfo, ptr %113, i32 0, i32 6
  store ptr %112, ptr %114, align 8
  %115 = load ptr, ptr %10, align 8
  %116 = load ptr, ptr %6, align 8
  %117 = getelementptr inbounds nuw %struct.ReturnSetInfo, ptr %116, i32 0, i32 7
  store ptr %115, ptr %117, align 8
  %118 = load ptr, ptr %8, align 8
  %119 = call ptr @MemoryContextSwitchTo(ptr noundef %118)
  call void @llvm.lifetime.end.p0(i64 8, ptr %10) #7
  call void @llvm.lifetime.end.p0(i64 8, ptr %9) #7
  call void @llvm.lifetime.end.p0(i64 8, ptr %8) #7
  call void @llvm.lifetime.end.p0(i64 8, ptr %7) #7
  call void @llvm.lifetime.end.p0(i64 8, ptr %6) #7
  call void @llvm.lifetime.end.p0(i64 1, ptr %5) #7
  ret void
}