; Function Attrs: nounwind uwtable
define dso_local void @InitMaterializedSRF(ptr noundef readonly captures(none) %0, i32 noundef %1) local_unnamed_addr #0 {
  %3 = alloca ptr, align 8
  %4 = getelementptr inbounds nuw i8, ptr %0, i64 16
  %5 = load ptr, ptr %4, align 8
  call void @llvm.lifetime.start.p0(i64 8, ptr nonnull %3) #8
  %6 = icmp eq ptr %5, null
  br i1 %6, label %10, label %7

7:                                                ; preds = %2
  %8 = load i32, ptr %5, align 4
  %9 = icmp eq i32 %8, 382
  br i1 %9, label %14, label %10

10:                                               ; preds = %7, %2
  %11 = tail call zeroext i1 @errstart_cold(i32 noundef 21, ptr noundef null) #9
  tail call void @llvm.assume(i1 %11)
  %12 = tail call i32 @errcode(i32 noundef 1088) #8
  %13 = tail call i32 (ptr, ...) @errmsg(ptr noundef nonnull @.str) #8
  tail call void @errfinish(ptr noundef nonnull @.str.1, i32 noundef 89, ptr noundef nonnull @__func__.InitMaterializedSRF) #8
  unreachable

14:                                               ; preds = %7
  %15 = getelementptr inbounds nuw i8, ptr %5, i64 24
  %16 = load i32, ptr %15, align 8
  %17 = and i32 %16, 2
  %.not = icmp eq i32 %17, 0
  br i1 %.not, label %24, label %18

18:                                               ; preds = %14
  %19 = and i32 %1, 1
  %.not18 = icmp eq i32 %19, 0
  br i1 %.not18, label %35, label %20

20:                                               ; preds = %18
  %21 = getelementptr inbounds nuw i8, ptr %5, i64 16
  %22 = load ptr, ptr %21, align 8
  %23 = icmp eq ptr %22, null
  br i1 %23, label %24, label %28

24:                                               ; preds = %20, %14
  %25 = tail call zeroext i1 @errstart_cold(i32 noundef 21, ptr noundef null) #9
  tail call void @llvm.assume(i1 %25)
  %26 = tail call i32 @errcode(i32 noundef 1088) #8
  %27 = tail call i32 (ptr, ...) @errmsg(ptr noundef nonnull @.str.2) #8
  tail call void @errfinish(ptr noundef nonnull @.str.1, i32 noundef 94, ptr noundef nonnull @__func__.InitMaterializedSRF) #8
  unreachable

28:                                               ; preds = %20
  %29 = getelementptr inbounds nuw i8, ptr %5, i64 8
  %30 = load ptr, ptr %29, align 8
  %31 = getelementptr inbounds nuw i8, ptr %30, i64 32
  %32 = load ptr, ptr %31, align 8
  %33 = load ptr, ptr @CurrentMemoryContext, align 8
  store ptr %32, ptr @CurrentMemoryContext, align 8
  %34 = tail call ptr @CreateTupleDescCopy(ptr noundef nonnull %22) #8
  store ptr %34, ptr %3, align 8
  br label %50

35:                                               ; preds = %18
  %36 = getelementptr inbounds nuw i8, ptr %5, i64 8
  %37 = load ptr, ptr %36, align 8
  %38 = getelementptr inbounds nuw i8, ptr %37, i64 32
  %39 = load ptr, ptr %38, align 8
  %40 = load ptr, ptr @CurrentMemoryContext, align 8
  store ptr %39, ptr @CurrentMemoryContext, align 8
  %41 = load ptr, ptr %0, align 8
  %42 = getelementptr inbounds nuw i8, ptr %41, i64 8
  %43 = load i32, ptr %42, align 8
  %44 = getelementptr inbounds nuw i8, ptr %41, i64 40
  %45 = load ptr, ptr %44, align 8
  %46 = call fastcc range(i32 0, 5) i32 @internal_get_result_type(i32 noundef %43, ptr noundef %45, ptr noundef nonnull %5, ptr noundef null, ptr noundef nonnull %3)
  %.not19 = icmp eq i32 %46, 1
  br i1 %.not19, label %50, label %47

47:                                               ; preds = %35
  %48 = call zeroext i1 @errstart_cold(i32 noundef 21, ptr noundef null) #9
  call void @llvm.assume(i1 %48)
  %49 = call i32 (ptr, ...) @errmsg_internal(ptr noundef nonnull @.str.3) #8
  call void @errfinish(ptr noundef nonnull @.str.1, i32 noundef 109, ptr noundef nonnull @__func__.InitMaterializedSRF) #8
  unreachable

50:                                               ; preds = %35, %28
  %51 = phi ptr [ %40, %35 ], [ %33, %28 ]
  %52 = and i32 %1, 2
  %.not20 = icmp eq i32 %52, 0
  br i1 %.not20, label %56, label %53

53:                                               ; preds = %50
  %54 = load ptr, ptr %3, align 8
  %55 = call ptr @BlessTupleDesc(ptr noundef %54) #8
  br label %56

56:                                               ; preds = %53, %50
  %57 = load i32, ptr %15, align 8
  %58 = and i32 %57, 4
  %59 = icmp ne i32 %58, 0
  %60 = load i32, ptr @work_mem, align 4
  %61 = call ptr @tuplestore_begin_heap(i1 noundef zeroext %59, i1 noundef zeroext false, i32 noundef %60) #8
  %62 = getelementptr inbounds nuw i8, ptr %5, i64 28
  store i32 2, ptr %62, align 4
  %63 = getelementptr inbounds nuw i8, ptr %5, i64 40
  store ptr %61, ptr %63, align 8
  %64 = load ptr, ptr %3, align 8
  %65 = getelementptr inbounds nuw i8, ptr %5, i64 48
  store ptr %64, ptr %65, align 8
  store ptr %51, ptr @CurrentMemoryContext, align 8
  call void @llvm.lifetime.end.p0(i64 8, ptr nonnull %3) #8
  ret void
}